target datalayout = "e-m:e-p270:32:32-p271:32:32-p272:64:64-i64:64-i128:128-f80:128-n8:16:32:64-S128"
target triple = "x86_64-pc-linux-gnu"

%struct.dsa_st = type { i64, ptr, ptr, ptr, ptr, ptr, ptr, ptr, i32, %union.crypto_mutex_st, ptr, i32, %struct.crypto_ex_data_st }
%union.crypto_mutex_st = type { double, [48 x i8] }
%struct.crypto_ex_data_st = type { ptr }

@stderr = external global ptr, align 8
@fips_q = internal constant [20 x i8] c"\C7s!\8Cs~\C8\EE\99;O-\ED0\F4\8E\DA\CE\91_", align 16
@fips_p = internal constant [64 x i8] c"\8D\F2\A4\94I\22v\AA=%u\9B\B0hi\CB\EA\C0\D8:\FB\8D\0C\F7\CB\B82O\0Dx\82\E5\D0v/\C5\B7!\0E\AF\C2\E9\AD\AC2\ABz\ACIi=\FB\F87$\C2\EC\076\EE1\C8\02\91", align 16
@fips_g = internal constant [64 x i8] c"bm\02x9\EA\0A\13A1c\A5[L\B5\00)\9DU\22\95l\EF\CB;\FF\10\F3\99\CE,.q\CB\9D\E5\FA$\BA\BFX\E5\B7\95!\92\\\9C\C4.\9FoFK\08\8C\C5r\AFS\E6\D7\88\02", align 16
@fips_digest = internal constant [20 x i8] c"\A9\99>6G\06\81j\BA>%qxP\C2l\9C\D0\D8\9D", align 16
@.str.12 = private unnamed_addr constant [33 x i8] c"DSA_verify returned %d, want %d\0A\00", align 1
@fips_y = internal constant [64 x i8] c"\19\13\18q\D7[\16\12\A8\19\F2\9Dx\D1\B0\D74oz\A7{\B6*\85\9B\FDlVu\DA\9D!-:6\EF\16r\EFf\0B\8C|%\\\C0\ECt\85\8F\BA3\F4L\06i\960\A7k\03\0E\E33", align 16
@fips_x = internal constant [20 x i8] c" p\B3\22=\BA7/\DE\1C\0F\FC{.;I\8B&\06\14", align 16

; Function Attrs: nounwind uwtable
define internal ptr @get_fips_dsa() #0 {
  %1 = alloca ptr, align 8
  %2 = alloca ptr, align 8
  %3 = alloca i32, align 4
  call void @llvm.lifetime.start.p0(i64 8, ptr %2) #5
  %4 = call ptr @DSA_new()
  store ptr %4, ptr %2, align 8, !tbaa !15
  %5 = load ptr, ptr %2, align 8, !tbaa !15
  %6 = icmp ne ptr %5, null
  br i1 %6, label %8, label %7

7:                                                ; preds = %0
  store ptr null, ptr %1, align 8
  store i32 1, ptr %3, align 4
  br label %52

8:                                                ; preds = %0
  %9 = call ptr @BN_bin2bn(ptr noundef @fips_p, i64 noundef 64, ptr noundef null)
  %10 = load ptr, ptr %2, align 8, !tbaa !15
  %11 = getelementptr inbounds nuw %struct.dsa_st, ptr %10, i32 0, i32 1
  store ptr %9, ptr %11, align 8, !tbaa !28
  %12 = call ptr @BN_bin2bn(ptr noundef @fips_q, i64 noundef 20, ptr noundef null)
  %13 = load ptr, ptr %2, align 8, !tbaa !15
  %14 = getelementptr inbounds nuw %struct.dsa_st, ptr %13, i32 0, i32 2
  store ptr %12, ptr %14, align 8, !tbaa !22
  %15 = call ptr @BN_bin2bn(ptr noundef @fips_g, i64 noundef 64, ptr noundef null)
  %16 = load ptr, ptr %2, align 8, !tbaa !15
  %17 = getelementptr inbounds nuw %struct.dsa_st, ptr %16, i32 0, i32 3
  store ptr %15, ptr %17, align 8, !tbaa !29
  %18 = call ptr @BN_bin2bn(ptr noundef @fips_y, i64 noundef 64, ptr noundef null)
  %19 = load ptr, ptr %2, align 8, !tbaa !15
  %20 = getelementptr inbounds nuw %struct.dsa_st, ptr %19, i32 0, i32 4
  store ptr %18, ptr %20, align 8, !tbaa !36
  %21 = call ptr @BN_bin2bn(ptr noundef @fips_x, i64 noundef 20, ptr noundef null)
  %22 = load ptr, ptr %2, align 8, !tbaa !15
  %23 = getelementptr inbounds nuw %struct.dsa_st, ptr %22, i32 0, i32 5
  store ptr %21, ptr %23, align 8, !tbaa !37
  %24 = load ptr, ptr %2, align 8, !tbaa !15
  %25 = getelementptr inbounds nuw %struct.dsa_st, ptr %24, i32 0, i32 1
  %26 = load ptr, ptr %25, align 8, !tbaa !28
  %27 = icmp eq ptr %26, null
  br i1 %27, label %48, label %28

28:                                               ; preds = %8
  %29 = load ptr, ptr %2, align 8, !tbaa !15
  %30 = getelementptr inbounds nuw %struct.dsa_st, ptr %29, i32 0, i32 2
  %31 = load ptr, ptr %30, align 8, !tbaa !22
  %32 = icmp eq ptr %31, null
  br i1 %32, label %48, label %33

33:                                               ; preds = %28
  %34 = load ptr, ptr %2, align 8, !tbaa !15
  %35 = getelementptr inbounds nuw %struct.dsa_st, ptr %34, i32 0, i32 3
  %36 = load ptr, ptr %35, align 8, !tbaa !29
  %37 = icmp eq ptr %36, null
  br i1 %37, label %48, label %38

38:                                               ; preds = %33
  %39 = load ptr, ptr %2, align 8, !tbaa !15
  %40 = getelementptr inbounds nuw %struct.dsa_st, ptr %39, i32 0, i32 4
  %41 = load ptr, ptr %40, align 8, !tbaa !36
  %42 = icmp eq ptr %41, null
  br i1 %42, label %48, label %43

43:                                               ; preds = %38
  %44 = load ptr, ptr %2, align 8, !tbaa !15
  %45 = getelementptr inbounds nuw %struct.dsa_st, ptr %44, i32 0, i32 5
  %46 = load ptr, ptr %45, align 8, !tbaa !37
  %47 = icmp eq ptr %46, null
  br i1 %47, label %48, label %50

48:                                               ; preds = %43, %38, %33, %28, %8
  %49 = load ptr, ptr %2, align 8, !tbaa !15
  call void @DSA_free(ptr noundef %49)
  store ptr null, ptr %1, align 8
  store i32 1, ptr %3, align 4
  br label %52

50:                                               ; preds = %43
  %51 = load ptr, ptr %2, align 8, !tbaa !15
  store ptr %51, ptr %1, align 8
  store i32 1, ptr %3, align 4
  br label %52

52:                                               ; preds = %50, %48, %7
  call void @llvm.lifetime.end.p0(i64 8, ptr %2) #5
  %53 = load ptr, ptr %1, align 8
  ret ptr %53
}

; Function Attrs: nounwind uwtable
define internal i32 @test_verify(ptr noundef %0, i64 noundef %1, i32 noundef %2) #0 {
  %4 = alloca ptr, align 8
  %5 = alloca i64, align 8
  %6 = alloca i32, align 4
  %7 = alloca i32, align 4
  %8 = alloca ptr, align 8
  %9 = alloca i32, align 4
  store ptr %0, ptr %4, align 8, !tbaa !30
  store i64 %1, ptr %5, align 8, !tbaa !20
  store i32 %2, ptr %6, align 4, !tbaa !6
  call void @llvm.lifetime.start.p0(i64 4, ptr %7) #5
  store i32 0, ptr %7, align 4, !tbaa !6
  call void @llvm.lifetime.start.p0(i64 8, ptr %8) #5
  %10 = call ptr @get_fips_dsa()
  store ptr %10, ptr %8, align 8, !tbaa !15
  %11 = load ptr, ptr %8, align 8, !tbaa !15
  %12 = icmp eq ptr %11, null
  br i1 %12, label %13, label %14

13:                                               ; preds = %3
  br label %28

14:                                               ; preds = %3
  %15 = load ptr, ptr %4, align 8, !tbaa !30
  %16 = load i64, ptr %5, align 8, !tbaa !20
  %17 = load ptr, ptr %8, align 8, !tbaa !15
  %18 = call i32 @DSA_verify(i32 noundef 0, ptr noundef @fips_digest, i64 noundef 20, ptr noundef %15, i64 noundef %16, ptr noundef %17)
  store i32 %18, ptr %9, align 4, !tbaa !6
  %19 = load i32, ptr %9, align 4, !tbaa !6
  %20 = load i32, ptr %6, align 4, !tbaa !6
  %21 = icmp ne i32 %19, %20
  br i1 %21, label %22, label %27

22:                                               ; preds = %14
  %23 = load ptr, ptr @stderr, align 8, !tbaa !13
  %24 = load i32, ptr %9, align 4, !tbaa !6
  %25 = load i32, ptr %6, align 4, !tbaa !6
  %26 = call i32 (ptr, ptr, ...) @fprintf(ptr noundef %23, ptr noundef @.str.12, i32 noundef %24, i32 noundef %25) #5
  br label %28

27:                                               ; preds = %14
  store i32 1, ptr %7, align 4, !tbaa !6
  call void @ERR_clear_error()
  br label %28

28:                                               ; preds = %27, %22, %13
  %29 = load ptr, ptr %8, align 8, !tbaa !15
  call void @DSA_free(ptr noundef %29)
  %30 = load i32, ptr %7, align 4, !tbaa !6
  call void @llvm.lifetime.end.p0(i64 8, ptr %8) #5
  call void @llvm.lifetime.end.p0(i64 4, ptr %7) #5
  ret i32 %30
}