; Function Attrs: nounwind uwtable
define internal fastcc range(i32 0, 2) i32 @test_verify(ptr noundef %0, i64 noundef range(i64 46, 50) %1, i32 noundef range(i32 -1, 2) %2) unnamed_addr #0 {
  %4 = tail call ptr @DSA_new() #7
  %.not.i = icmp eq ptr %4, null
  br i1 %.not.i, label %get_fips_dsa.exit.thread, label %5

5:                                                ; preds = %3
  %6 = tail call ptr @BN_bin2bn(ptr noundef nonnull @fips_p, i64 noundef 64, ptr noundef null) #7
  %7 = getelementptr inbounds nuw i8, ptr %4, i64 8
  store ptr %6, ptr %7, align 8, !tbaa !24
  %8 = tail call ptr @BN_bin2bn(ptr noundef nonnull @fips_q, i64 noundef 20, ptr noundef null) #7
  %9 = getelementptr inbounds nuw i8, ptr %4, i64 16
  store ptr %8, ptr %9, align 8, !tbaa !18
  %10 = tail call ptr @BN_bin2bn(ptr noundef nonnull @fips_g, i64 noundef 64, ptr noundef null) #7
  %11 = getelementptr inbounds nuw i8, ptr %4, i64 24
  store ptr %10, ptr %11, align 8, !tbaa !25
  %12 = tail call ptr @BN_bin2bn(ptr noundef nonnull @fips_y, i64 noundef 64, ptr noundef null) #7
  %13 = getelementptr inbounds nuw i8, ptr %4, i64 32
  store ptr %12, ptr %13, align 8, !tbaa !26
  %14 = tail call ptr @BN_bin2bn(ptr noundef nonnull @fips_x, i64 noundef 20, ptr noundef null) #7
  %15 = getelementptr inbounds nuw i8, ptr %4, i64 40
  store ptr %14, ptr %15, align 8, !tbaa !27
  %16 = load ptr, ptr %7, align 8, !tbaa !24
  %17 = icmp eq ptr %16, null
  br i1 %17, label %28, label %18

18:                                               ; preds = %5
  %19 = load ptr, ptr %9, align 8, !tbaa !18
  %20 = icmp eq ptr %19, null
  br i1 %20, label %28, label %21

21:                                               ; preds = %18
  %22 = load ptr, ptr %11, align 8, !tbaa !25
  %23 = icmp eq ptr %22, null
  br i1 %23, label %28, label %24

24:                                               ; preds = %21
  %25 = load ptr, ptr %13, align 8, !tbaa !26
  %26 = icmp eq ptr %25, null
  %27 = icmp eq ptr %14, null
  %or.cond.i = select i1 %26, i1 true, i1 %27
  br i1 %or.cond.i, label %28, label %get_fips_dsa.exit

28:                                               ; preds = %24, %21, %18, %5
  tail call void @DSA_free(ptr noundef nonnull %4) #7
  br label %get_fips_dsa.exit.thread

get_fips_dsa.exit:                                ; preds = %24
  %29 = tail call i32 @DSA_verify(i32 noundef 0, ptr noundef nonnull @fips_digest, i64 noundef 20, ptr noundef %0, i64 noundef %1, ptr noundef nonnull %4) #7
  %.not = icmp eq i32 %29, %2
  br i1 %.not, label %33, label %30

30:                                               ; preds = %get_fips_dsa.exit
  %31 = load ptr, ptr @stderr, align 8, !tbaa !6
  %32 = tail call i32 (ptr, ptr, ...) @fprintf(ptr noundef %31, ptr noundef nonnull @.str.12, i32 noundef %29, i32 noundef %2) #9
  br label %get_fips_dsa.exit.thread

33:                                               ; preds = %get_fips_dsa.exit
  tail call void @ERR_clear_error() #7
  br label %get_fips_dsa.exit.thread

get_fips_dsa.exit.thread:                         ; preds = %3, %28, %33, %30
  %.0.i13 = phi ptr [ %4, %30 ], [ %4, %33 ], [ null, %28 ], [ null, %3 ]
  %.0 = phi i32 [ 0, %30 ], [ 1, %33 ], [ 0, %28 ], [ 0, %3 ]
  tail call void @DSA_free(ptr noundef %.0.i13) #7
  ret i32 %.0
}